; Function Attrs: inlinehint mustprogress uwtable
define internal void @_ZN2cv4gapi3wip3gstL19GStreamerPtrReleaseI11_GstElementEEvPT_(ptr noundef %0) #7 {
  %.not.i = icmp eq ptr %0, null
  br i1 %.not.i, label %_ZN2cv4gapi3wip3gstL23GStreamerPtrUnrefObjectI11_GstElementEEvPT_.exit, label %2

2:                                                ; preds = %1
  %3 = tail call ptr @g_type_check_instance_cast(ptr noundef nonnull %0, i64 noundef 80)
  tail call void @gst_object_unref(ptr noundef %3)
  br label %_ZN2cv4gapi3wip3gstL23GStreamerPtrUnrefObjectI11_GstElementEEvPT_.exit

_ZN2cv4gapi3wip3gstL23GStreamerPtrUnrefObjectI11_GstElementEEvPT_.exit: ; preds = %1, %2
  ret void
}